target datalayout = "e-m:e-p270:32:32-p271:32:32-p272:64:64-i64:64-i128:128-f80:128-n8:16:32:64-S128"
target triple = "x86_64-pc-linux-gnu"

%struct._priv_exr_context_t = type { i8, i8, i8, i8, i8, i8, i8, i8, %struct.exr_attr_string_t, %struct.exr_attr_string_t, ptr, ptr, ptr, ptr, ptr, ptr, ptr, ptr, i32, i32, i32, i32, i32, float, ptr, ptr, ptr, i64, ptr, ptr, i64, i32, i32, i32, i32, %struct._priv_exr_part_t, ptr, ptr, %struct.exr_attribute_list, %union.pthread_mutex_t, i8, i8, [2 x i8], i32 }
%struct.exr_attr_string_t = type { i32, i32, ptr }
%struct._priv_exr_part_t = type { i32, i32, %struct.exr_attribute_list, ptr, ptr, ptr, ptr, ptr, ptr, ptr, ptr, ptr, ptr, ptr, ptr, ptr, ptr, %struct.exr_attr_box2i_t, %struct.exr_attr_box2i_t, i32, i32, i32, float, i32, i32, ptr, ptr, ptr, ptr, i64, i16, i16, i32, i64, i64 }
%struct.exr_attr_box2i_t = type { %struct.exr_attr_v2i_t, %struct.exr_attr_v2i_t }
%struct.exr_attr_v2i_t = type { i32, i32 }
%struct.exr_attribute_list = type { i32, i32, ptr, ptr }
%union.pthread_mutex_t = type { %struct.__pthread_mutex_s }
%struct.__pthread_mutex_s = type { i32, i32, i32, i32, i32, i16, i16, %struct.__pthread_internal_list }
%struct.__pthread_internal_list = type { ptr, ptr }

@.str = private unnamed_addr constant [29 x i8] c"Part index (%d) out of range\00", align 1

; Function Attrs: inlinehint nounwind uwtable
define internal void @internal_exr_unlock(ptr noundef %0) #2 {
  %2 = alloca ptr, align 8
  %3 = alloca ptr, align 8
  store ptr %0, ptr %2, align 8, !tbaa !3
  call void @llvm.lifetime.start.p0(i64 8, ptr %3) #6
  %4 = load ptr, ptr %2, align 8, !tbaa !3
  %5 = ptrtoint ptr %4 to i64
  %6 = inttoptr i64 %5 to ptr
  store ptr %6, ptr %3, align 8, !tbaa !3
  %7 = load ptr, ptr %3, align 8, !tbaa !3
  %8 = getelementptr inbounds nuw %struct._priv_exr_context_t, ptr %7, i32 0, i32 39
  %9 = call i32 @pthread_mutex_unlock(ptr noundef %8) #6
  call void @llvm.lifetime.end.p0(i64 8, ptr %3) #6
  ret void
}

; Function Attrs: inlinehint nounwind uwtable
define internal void @internal_exr_lock(ptr noundef %0) #2 {
  %2 = alloca ptr, align 8
  %3 = alloca ptr, align 8
  store ptr %0, ptr %2, align 8, !tbaa !3
  call void @llvm.lifetime.start.p0(i64 8, ptr %3) #6
  %4 = load ptr, ptr %2, align 8, !tbaa !3
  %5 = ptrtoint ptr %4 to i64
  %6 = inttoptr i64 %5 to ptr
  store ptr %6, ptr %3, align 8, !tbaa !3
  %7 = load ptr, ptr %3, align 8, !tbaa !3
  %8 = getelementptr inbounds nuw %struct._priv_exr_context_t, ptr %7, i32 0, i32 39
  %9 = call i32 @pthread_mutex_lock(ptr noundef %8) #6
  call void @llvm.lifetime.end.p0(i64 8, ptr %3) #6
  ret void
}

; Function Attrs: nounwind uwtable
define i32 @exr_get_chunk_unpacked_size(ptr noundef %0, i32 noundef %1, ptr noundef %2) #0 {
  %4 = alloca i32, align 4
  %5 = alloca ptr, align 8
  %6 = alloca i32, align 4
  %7 = alloca ptr, align 8
  %8 = alloca i64, align 8
  %9 = alloca ptr, align 8
  %10 = alloca i32, align 4
  store ptr %0, ptr %5, align 8, !tbaa !3
  store i32 %1, ptr %6, align 4, !tbaa !27
  store ptr %2, ptr %7, align 8, !tbaa !62
  call void @llvm.lifetime.start.p0(i64 8, ptr %8) #6
  call void @llvm.lifetime.start.p0(i64 8, ptr %9) #6
  %11 = load ptr, ptr %5, align 8, !tbaa !3
  %12 = icmp ne ptr %11, null
  br i1 %12, label %14, label %13

13:                                               ; preds = %3
  store i32 2, ptr %4, align 4
  store i32 1, ptr %10, align 4
  br label %76

14:                                               ; preds = %3
  %15 = load ptr, ptr %5, align 8, !tbaa !3
  %16 = getelementptr inbounds nuw %struct._priv_exr_context_t, ptr %15, i32 0, i32 0
  %17 = load i8, ptr %16, align 8, !tbaa !25
  %18 = zext i8 %17 to i32
  %19 = icmp eq i32 %18, 1
  br i1 %19, label %20, label %22

20:                                               ; preds = %14
  %21 = load ptr, ptr %5, align 8, !tbaa !3
  call void @internal_exr_lock(ptr noundef %21)
  br label %22

22:                                               ; preds = %20, %14
  %23 = load i32, ptr %6, align 4, !tbaa !27
  %24 = icmp slt i32 %23, 0
  br i1 %24, label %31, label %25

25:                                               ; preds = %22
  %26 = load i32, ptr %6, align 4, !tbaa !27
  %27 = load ptr, ptr %5, align 8, !tbaa !3
  %28 = getelementptr inbounds nuw %struct._priv_exr_context_t, ptr %27, i32 0, i32 34
  %29 = load i32, ptr %28, align 4, !tbaa !26
  %30 = icmp sge i32 %26, %29
  br i1 %30, label %31, label %46

31:                                               ; preds = %25, %22
  %32 = load ptr, ptr %5, align 8, !tbaa !3
  %33 = getelementptr inbounds nuw %struct._priv_exr_context_t, ptr %32, i32 0, i32 0
  %34 = load i8, ptr %33, align 8, !tbaa !25
  %35 = zext i8 %34 to i32
  %36 = icmp eq i32 %35, 1
  br i1 %36, label %37, label %39

37:                                               ; preds = %31
  %38 = load ptr, ptr %5, align 8, !tbaa !3
  call void @internal_exr_unlock(ptr noundef %38)
  br label %39

39:                                               ; preds = %37, %31
  %40 = load ptr, ptr %5, align 8, !tbaa !3
  %41 = getelementptr inbounds nuw %struct._priv_exr_context_t, ptr %40, i32 0, i32 14
  %42 = load ptr, ptr %41, align 8, !tbaa !29
  %43 = load ptr, ptr %5, align 8, !tbaa !3
  %44 = load i32, ptr %6, align 4, !tbaa !27
  %45 = call i32 (ptr, i32, ptr, ...) %42(ptr noundef %43, i32 noundef 4, ptr noundef @.str, i32 noundef %44)
  store i32 %45, ptr %4, align 4
  store i32 1, ptr %10, align 4
  br label %76

46:                                               ; preds = %25
  %47 = load ptr, ptr %5, align 8, !tbaa !3
  %48 = getelementptr inbounds nuw %struct._priv_exr_context_t, ptr %47, i32 0, i32 37
  %49 = load ptr, ptr %48, align 8, !tbaa !30
  %50 = load i32, ptr %6, align 4, !tbaa !27
  %51 = sext i32 %50 to i64
  %52 = getelementptr inbounds ptr, ptr %49, i64 %51
  %53 = load ptr, ptr %52, align 8, !tbaa !31
  store ptr %53, ptr %9, align 8, !tbaa !31
  %54 = load ptr, ptr %9, align 8, !tbaa !31
  %55 = getelementptr inbounds nuw %struct._priv_exr_part_t, ptr %54, i32 0, i32 29
  %56 = load i64, ptr %55, align 8, !tbaa !66
  store i64 %56, ptr %8, align 8, !tbaa !34
  %57 = load ptr, ptr %5, align 8, !tbaa !3
  %58 = getelementptr inbounds nuw %struct._priv_exr_context_t, ptr %57, i32 0, i32 0
  %59 = load i8, ptr %58, align 8, !tbaa !25
  %60 = zext i8 %59 to i32
  %61 = icmp eq i32 %60, 1
  br i1 %61, label %62, label %64

62:                                               ; preds = %46
  %63 = load ptr, ptr %5, align 8, !tbaa !3
  call void @internal_exr_unlock(ptr noundef %63)
  br label %64

64:                                               ; preds = %62, %46
  %65 = load ptr, ptr %7, align 8, !tbaa !62
  %66 = icmp ne ptr %65, null
  br i1 %66, label %73, label %67

67:                                               ; preds = %64
  %68 = load ptr, ptr %5, align 8, !tbaa !3
  %69 = getelementptr inbounds nuw %struct._priv_exr_context_t, ptr %68, i32 0, i32 12
  %70 = load ptr, ptr %69, align 8, !tbaa !10
  %71 = load ptr, ptr %5, align 8, !tbaa !3
  %72 = call i32 %70(ptr noundef %71, i32 noundef 3)
  store i32 %72, ptr %4, align 4
  store i32 1, ptr %10, align 4
  br label %76

73:                                               ; preds = %64
  %74 = load i64, ptr %8, align 8, !tbaa !34
  %75 = load ptr, ptr %7, align 8, !tbaa !62
  store i64 %74, ptr %75, align 8, !tbaa !34
  store i32 0, ptr %4, align 4
  store i32 1, ptr %10, align 4
  br label %76

76:                                               ; preds = %73, %67, %39, %13
  call void @llvm.lifetime.end.p0(i64 8, ptr %9) #6
  call void @llvm.lifetime.end.p0(i64 8, ptr %8) #6
  %77 = load i32, ptr %4, align 4
  ret i32 %77
}